target datalayout = "e-m:e-p270:32:32-p271:32:32-p272:64:64-i64:64-i128:128-f80:128-n8:16:32:64-S128"
target triple = "x86_64-pc-linux-gnu"

; Function Attrs: mustprogress uwtable
define linkonce_odr void @_ZN18duckdb_fastpforlib8internal8UnrollerILt52ELt8EE4PackEPKmPj(ptr noalias noundef %0, ptr noalias noundef %1) #2 comdat align 2 {
  %3 = alloca ptr, align 8
  %4 = alloca ptr, align 8
  store ptr %0, ptr %3, align 8, !tbaa !21
  store ptr %1, ptr %4, align 8, !tbaa !16
  %5 = load ptr, ptr %3, align 8, !tbaa !21
  %6 = getelementptr inbounds nuw i64, ptr %5, i64 8
  %7 = load i64, ptr %6, align 8, !tbaa !23
  call void @_ZN18duckdb_fastpforlib8internal16pack_single_in64ILt52ELt0ELm4503599627370495EEENSt9enable_ifIXaageplT_T0_Li32EltplT_T0_Li64EEvE4typeEmRrPj(i64 noundef %7, ptr noundef nonnull align 8 dereferenceable(8) %4)
  %8 = load ptr, ptr %3, align 8, !tbaa !21
  %9 = load ptr, ptr %4, align 8, !tbaa !16
  call void @_ZN18duckdb_fastpforlib8internal8UnrollerILt52ELt9EE4PackEPKmPj(ptr noundef %8, ptr noundef %9)
  ret void
}

; Function Attrs: mustprogress nounwind uwtable
define linkonce_odr void @_ZN18duckdb_fastpforlib8internal16pack_single_in64ILt52ELt12ELm4503599627370495EEENSt9enable_ifIXgeplT_T0_Li64EEvE4typeEmRrPj(i64 noundef %0, ptr noundef nonnull align 8 dereferenceable(8) %1) #0 comdat {
  %3 = alloca i64, align 8
  %4 = alloca ptr, align 8
  store i64 %0, ptr %3, align 8, !tbaa !23
  store ptr %1, ptr %4, align 8, !tbaa !38
  %5 = load i64, ptr %3, align 8, !tbaa !23
  %6 = shl i64 %5, 12
  %7 = load ptr, ptr %4, align 8, !tbaa !38
  %8 = load ptr, ptr %7, align 8, !tbaa !16
  %9 = load i32, ptr %8, align 4, !tbaa !18
  %10 = zext i32 %9 to i64
  %11 = or i64 %10, %6
  %12 = trunc i64 %11 to i32
  store i32 %12, ptr %8, align 4, !tbaa !18
  %13 = load ptr, ptr %4, align 8, !tbaa !38
  %14 = load ptr, ptr %13, align 8, !tbaa !16
  %15 = getelementptr inbounds nuw i32, ptr %14, i32 1
  store ptr %15, ptr %13, align 8, !tbaa !16
  %16 = load i64, ptr %3, align 8, !tbaa !23
  %17 = and i64 %16, 4503599627370495
  %18 = lshr i64 %17, 20
  %19 = trunc i64 %18 to i32
  %20 = load ptr, ptr %4, align 8, !tbaa !38
  %21 = load ptr, ptr %20, align 8, !tbaa !16
  store i32 %19, ptr %21, align 4, !tbaa !18
  %22 = load ptr, ptr %4, align 8, !tbaa !38
  %23 = load ptr, ptr %22, align 8, !tbaa !16
  %24 = getelementptr inbounds nuw i32, ptr %23, i32 1
  store ptr %24, ptr %22, align 8, !tbaa !16
  ret void
}

; Function Attrs: mustprogress uwtable
define linkonce_odr void @_ZN18duckdb_fastpforlib8internal8UnrollerILt52ELt7EE4PackEPKmPj(ptr noalias noundef %0, ptr noalias noundef %1) #2 comdat align 2 {
  %3 = alloca ptr, align 8
  %4 = alloca ptr, align 8
  store ptr %0, ptr %3, align 8, !tbaa !21
  store ptr %1, ptr %4, align 8, !tbaa !16
  %5 = load ptr, ptr %3, align 8, !tbaa !21
  %6 = getelementptr inbounds nuw i64, ptr %5, i64 7
  %7 = load i64, ptr %6, align 8, !tbaa !23
  call void @_ZN18duckdb_fastpforlib8internal16pack_single_in64ILt52ELt12ELm4503599627370495EEENSt9enable_ifIXgeplT_T0_Li64EEvE4typeEmRrPj(i64 noundef %7, ptr noundef nonnull align 8 dereferenceable(8) %4)
  %8 = load ptr, ptr %3, align 8, !tbaa !21
  %9 = load ptr, ptr %4, align 8, !tbaa !16
  call void @_ZN18duckdb_fastpforlib8internal8UnrollerILt52ELt8EE4PackEPKmPj(ptr noundef %8, ptr noundef %9)
  ret void
}

; Function Attrs: mustprogress nounwind uwtable
define linkonce_odr void @_ZN18duckdb_fastpforlib8internal16pack_single_in64ILt52ELt24ELm4503599627370495EEENSt9enable_ifIXgeplT_T0_Li64EEvE4typeEmRrPj(i64 noundef %0, ptr noundef nonnull align 8 dereferenceable(8) %1) #0 comdat {
  %3 = alloca i64, align 8
  %4 = alloca ptr, align 8
  store i64 %0, ptr %3, align 8, !tbaa !23
  store ptr %1, ptr %4, align 8, !tbaa !38
  %5 = load i64, ptr %3, align 8, !tbaa !23
  %6 = shl i64 %5, 24
  %7 = load ptr, ptr %4, align 8, !tbaa !38
  %8 = load ptr, ptr %7, align 8, !tbaa !16
  %9 = load i32, ptr %8, align 4, !tbaa !18
  %10 = zext i32 %9 to i64
  %11 = or i64 %10, %6
  %12 = trunc i64 %11 to i32
  store i32 %12, ptr %8, align 4, !tbaa !18
  %13 = load ptr, ptr %4, align 8, !tbaa !38
  %14 = load ptr, ptr %13, align 8, !tbaa !16
  %15 = getelementptr inbounds nuw i32, ptr %14, i32 1
  store ptr %15, ptr %13, align 8, !tbaa !16
  %16 = load i64, ptr %3, align 8, !tbaa !23
  %17 = and i64 %16, 4503599627370495
  %18 = lshr i64 %17, 8
  %19 = trunc i64 %18 to i32
  %20 = load ptr, ptr %4, align 8, !tbaa !38
  %21 = load ptr, ptr %20, align 8, !tbaa !16
  store i32 %19, ptr %21, align 4, !tbaa !18
  %22 = load ptr, ptr %4, align 8, !tbaa !38
  %23 = load ptr, ptr %22, align 8, !tbaa !16
  %24 = getelementptr inbounds nuw i32, ptr %23, i32 1
  store ptr %24, ptr %22, align 8, !tbaa !16
  %25 = load i64, ptr %3, align 8, !tbaa !23
  %26 = and i64 %25, 4503599627370495
  %27 = lshr i64 %26, 40
  %28 = trunc i64 %27 to i32
  %29 = load ptr, ptr %4, align 8, !tbaa !38
  %30 = load ptr, ptr %29, align 8, !tbaa !16
  store i32 %28, ptr %30, align 4, !tbaa !18
  ret void
}

; Function Attrs: mustprogress uwtable
define linkonce_odr void @_ZN18duckdb_fastpforlib8internal8UnrollerILt52ELt6EE4PackEPKmPj(ptr noalias noundef %0, ptr noalias noundef %1) #2 comdat align 2 {
  %3 = alloca ptr, align 8
  %4 = alloca ptr, align 8
  store ptr %0, ptr %3, align 8, !tbaa !21
  store ptr %1, ptr %4, align 8, !tbaa !16
  %5 = load ptr, ptr %3, align 8, !tbaa !21
  %6 = getelementptr inbounds nuw i64, ptr %5, i64 6
  %7 = load i64, ptr %6, align 8, !tbaa !23
  call void @_ZN18duckdb_fastpforlib8internal16pack_single_in64ILt52ELt24ELm4503599627370495EEENSt9enable_ifIXgeplT_T0_Li64EEvE4typeEmRrPj(i64 noundef %7, ptr noundef nonnull align 8 dereferenceable(8) %4)
  %8 = load ptr, ptr %3, align 8, !tbaa !21
  %9 = load ptr, ptr %4, align 8, !tbaa !16
  call void @_ZN18duckdb_fastpforlib8internal8UnrollerILt52ELt7EE4PackEPKmPj(ptr noundef %8, ptr noundef %9)
  ret void
}

; Function Attrs: mustprogress nounwind uwtable
define linkonce_odr void @_ZN18duckdb_fastpforlib8internal16pack_single_in64ILt52ELt4ELm4503599627370495EEENSt9enable_ifIXaageplT_T0_Li32EltplT_T0_Li64EEvE4typeEmRrPj(i64 noundef %0, ptr noundef nonnull align 8 dereferenceable(8) %1) #0 comdat {
  %3 = alloca i64, align 8
  %4 = alloca ptr, align 8
  store i64 %0, ptr %3, align 8, !tbaa !23
  store ptr %1, ptr %4, align 8, !tbaa !38
  %5 = load i64, ptr %3, align 8, !tbaa !23
  %6 = and i64 %5, 4503599627370495
  %7 = shl i64 %6, 4
  %8 = load ptr, ptr %4, align 8, !tbaa !38
  %9 = load ptr, ptr %8, align 8, !tbaa !16
  %10 = load i32, ptr %9, align 4, !tbaa !18
  %11 = zext i32 %10 to i64
  %12 = or i64 %11, %7
  %13 = trunc i64 %12 to i32
  store i32 %13, ptr %9, align 4, !tbaa !18
  %14 = load ptr, ptr %4, align 8, !tbaa !38
  %15 = load ptr, ptr %14, align 8, !tbaa !16
  %16 = getelementptr inbounds nuw i32, ptr %15, i32 1
  store ptr %16, ptr %14, align 8, !tbaa !16
  %17 = load i64, ptr %3, align 8, !tbaa !23
  %18 = and i64 %17, 4503599627370495
  %19 = lshr i64 %18, 28
  %20 = trunc i64 %19 to i32
  %21 = load ptr, ptr %4, align 8, !tbaa !38
  %22 = load ptr, ptr %21, align 8, !tbaa !16
  store i32 %20, ptr %22, align 4, !tbaa !18
  ret void
}

; Function Attrs: mustprogress uwtable
define linkonce_odr void @_ZN18duckdb_fastpforlib8internal8UnrollerILt52ELt5EE4PackEPKmPj(ptr noalias noundef %0, ptr noalias noundef %1) #2 comdat align 2 {
  %3 = alloca ptr, align 8
  %4 = alloca ptr, align 8
  store ptr %0, ptr %3, align 8, !tbaa !21
  store ptr %1, ptr %4, align 8, !tbaa !16
  %5 = load ptr, ptr %3, align 8, !tbaa !21
  %6 = getelementptr inbounds nuw i64, ptr %5, i64 5
  %7 = load i64, ptr %6, align 8, !tbaa !23
  call void @_ZN18duckdb_fastpforlib8internal16pack_single_in64ILt52ELt4ELm4503599627370495EEENSt9enable_ifIXaageplT_T0_Li32EltplT_T0_Li64EEvE4typeEmRrPj(i64 noundef %7, ptr noundef nonnull align 8 dereferenceable(8) %4)
  %8 = load ptr, ptr %3, align 8, !tbaa !21
  %9 = load ptr, ptr %4, align 8, !tbaa !16
  call void @_ZN18duckdb_fastpforlib8internal8UnrollerILt52ELt6EE4PackEPKmPj(ptr noundef %8, ptr noundef %9)
  ret void
}

; Function Attrs: mustprogress nounwind uwtable
define linkonce_odr void @_ZN18duckdb_fastpforlib8internal16pack_single_in64ILt52ELt16ELm4503599627370495EEENSt9enable_ifIXgeplT_T0_Li64EEvE4typeEmRrPj(i64 noundef %0, ptr noundef nonnull align 8 dereferenceable(8) %1) #0 comdat {
  %3 = alloca i64, align 8
  %4 = alloca ptr, align 8
  store i64 %0, ptr %3, align 8, !tbaa !23
  store ptr %1, ptr %4, align 8, !tbaa !38
  %5 = load i64, ptr %3, align 8, !tbaa !23
  %6 = shl i64 %5, 16
  %7 = load ptr, ptr %4, align 8, !tbaa !38
  %8 = load ptr, ptr %7, align 8, !tbaa !16
  %9 = load i32, ptr %8, align 4, !tbaa !18
  %10 = zext i32 %9 to i64
  %11 = or i64 %10, %6
  %12 = trunc i64 %11 to i32
  store i32 %12, ptr %8, align 4, !tbaa !18
  %13 = load ptr, ptr %4, align 8, !tbaa !38
  %14 = load ptr, ptr %13, align 8, !tbaa !16
  %15 = getelementptr inbounds nuw i32, ptr %14, i32 1
  store ptr %15, ptr %13, align 8, !tbaa !16
  %16 = load i64, ptr %3, align 8, !tbaa !23
  %17 = and i64 %16, 4503599627370495
  %18 = lshr i64 %17, 16
  %19 = trunc i64 %18 to i32
  %20 = load ptr, ptr %4, align 8, !tbaa !38
  %21 = load ptr, ptr %20, align 8, !tbaa !16
  store i32 %19, ptr %21, align 4, !tbaa !18
  %22 = load ptr, ptr %4, align 8, !tbaa !38
  %23 = load ptr, ptr %22, align 8, !tbaa !16
  %24 = getelementptr inbounds nuw i32, ptr %23, i32 1
  store ptr %24, ptr %22, align 8, !tbaa !16
  %25 = load i64, ptr %3, align 8, !tbaa !23
  %26 = and i64 %25, 4503599627370495
  %27 = lshr i64 %26, 48
  %28 = trunc i64 %27 to i32
  %29 = load ptr, ptr %4, align 8, !tbaa !38
  %30 = load ptr, ptr %29, align 8, !tbaa !16
  store i32 %28, ptr %30, align 4, !tbaa !18
  ret void
}

; Function Attrs: mustprogress uwtable
define linkonce_odr void @_ZN18duckdb_fastpforlib8internal8UnrollerILt52ELt4EE4PackEPKmPj(ptr noalias noundef %0, ptr noalias noundef %1) #2 comdat align 2 {
  %3 = alloca ptr, align 8
  %4 = alloca ptr, align 8
  store ptr %0, ptr %3, align 8, !tbaa !21
  store ptr %1, ptr %4, align 8, !tbaa !16
  %5 = load ptr, ptr %3, align 8, !tbaa !21
  %6 = getelementptr inbounds nuw i64, ptr %5, i64 4
  %7 = load i64, ptr %6, align 8, !tbaa !23
  call void @_ZN18duckdb_fastpforlib8internal16pack_single_in64ILt52ELt16ELm4503599627370495EEENSt9enable_ifIXgeplT_T0_Li64EEvE4typeEmRrPj(i64 noundef %7, ptr noundef nonnull align 8 dereferenceable(8) %4)
  %8 = load ptr, ptr %3, align 8, !tbaa !21
  %9 = load ptr, ptr %4, align 8, !tbaa !16
  call void @_ZN18duckdb_fastpforlib8internal8UnrollerILt52ELt5EE4PackEPKmPj(ptr noundef %8, ptr noundef %9)
  ret void
}

; Function Attrs: mustprogress nounwind uwtable
define linkonce_odr void @_ZN18duckdb_fastpforlib8internal16pack_single_in64ILt52ELt28ELm4503599627370495EEENSt9enable_ifIXgeplT_T0_Li64EEvE4typeEmRrPj(i64 noundef %0, ptr noundef nonnull align 8 dereferenceable(8) %1) #0 comdat {
  %3 = alloca i64, align 8
  %4 = alloca ptr, align 8
  store i64 %0, ptr %3, align 8, !tbaa !23
  store ptr %1, ptr %4, align 8, !tbaa !38
  %5 = load i64, ptr %3, align 8, !tbaa !23
  %6 = shl i64 %5, 28
  %7 = load ptr, ptr %4, align 8, !tbaa !38
  %8 = load ptr, ptr %7, align 8, !tbaa !16
  %9 = load i32, ptr %8, align 4, !tbaa !18
  %10 = zext i32 %9 to i64
  %11 = or i64 %10, %6
  %12 = trunc i64 %11 to i32
  store i32 %12, ptr %8, align 4, !tbaa !18
  %13 = load ptr, ptr %4, align 8, !tbaa !38
  %14 = load ptr, ptr %13, align 8, !tbaa !16
  %15 = getelementptr inbounds nuw i32, ptr %14, i32 1
  store ptr %15, ptr %13, align 8, !tbaa !16
  %16 = load i64, ptr %3, align 8, !tbaa !23
  %17 = and i64 %16, 4503599627370495
  %18 = lshr i64 %17, 4
  %19 = trunc i64 %18 to i32
  %20 = load ptr, ptr %4, align 8, !tbaa !38
  %21 = load ptr, ptr %20, align 8, !tbaa !16
  store i32 %19, ptr %21, align 4, !tbaa !18
  %22 = load ptr, ptr %4, align 8, !tbaa !38
  %23 = load ptr, ptr %22, align 8, !tbaa !16
  %24 = getelementptr inbounds nuw i32, ptr %23, i32 1
  store ptr %24, ptr %22, align 8, !tbaa !16
  %25 = load i64, ptr %3, align 8, !tbaa !23
  %26 = and i64 %25, 4503599627370495
  %27 = lshr i64 %26, 36
  %28 = trunc i64 %27 to i32
  %29 = load ptr, ptr %4, align 8, !tbaa !38
  %30 = load ptr, ptr %29, align 8, !tbaa !16
  store i32 %28, ptr %30, align 4, !tbaa !18
  ret void
}

; Function Attrs: mustprogress uwtable
define linkonce_odr void @_ZN18duckdb_fastpforlib8internal8UnrollerILt52ELt3EE4PackEPKmPj(ptr noalias noundef %0, ptr noalias noundef %1) #2 comdat align 2 {
  %3 = alloca ptr, align 8
  %4 = alloca ptr, align 8
  store ptr %0, ptr %3, align 8, !tbaa !21
  store ptr %1, ptr %4, align 8, !tbaa !16
  %5 = load ptr, ptr %3, align 8, !tbaa !21
  %6 = getelementptr inbounds nuw i64, ptr %5, i64 3
  %7 = load i64, ptr %6, align 8, !tbaa !23
  call void @_ZN18duckdb_fastpforlib8internal16pack_single_in64ILt52ELt28ELm4503599627370495EEENSt9enable_ifIXgeplT_T0_Li64EEvE4typeEmRrPj(i64 noundef %7, ptr noundef nonnull align 8 dereferenceable(8) %4)
  %8 = load ptr, ptr %3, align 8, !tbaa !21
  %9 = load ptr, ptr %4, align 8, !tbaa !16
  call void @_ZN18duckdb_fastpforlib8internal8UnrollerILt52ELt4EE4PackEPKmPj(ptr noundef %8, ptr noundef %9)
  ret void
}

; Function Attrs: mustprogress nounwind uwtable
define linkonce_odr void @_ZN18duckdb_fastpforlib8internal16pack_single_in64ILt52ELt8ELm4503599627370495EEENSt9enable_ifIXaageplT_T0_Li32EltplT_T0_Li64EEvE4typeEmRrPj(i64 noundef %0, ptr noundef nonnull align 8 dereferenceable(8) %1) #0 comdat {
  %3 = alloca i64, align 8
  %4 = alloca ptr, align 8
  store i64 %0, ptr %3, align 8, !tbaa !23
  store ptr %1, ptr %4, align 8, !tbaa !38
  %5 = load i64, ptr %3, align 8, !tbaa !23
  %6 = and i64 %5, 4503599627370495
  %7 = shl i64 %6, 8
  %8 = load ptr, ptr %4, align 8, !tbaa !38
  %9 = load ptr, ptr %8, align 8, !tbaa !16
  %10 = load i32, ptr %9, align 4, !tbaa !18
  %11 = zext i32 %10 to i64
  %12 = or i64 %11, %7
  %13 = trunc i64 %12 to i32
  store i32 %13, ptr %9, align 4, !tbaa !18
  %14 = load ptr, ptr %4, align 8, !tbaa !38
  %15 = load ptr, ptr %14, align 8, !tbaa !16
  %16 = getelementptr inbounds nuw i32, ptr %15, i32 1
  store ptr %16, ptr %14, align 8, !tbaa !16
  %17 = load i64, ptr %3, align 8, !tbaa !23
  %18 = and i64 %17, 4503599627370495
  %19 = lshr i64 %18, 24
  %20 = trunc i64 %19 to i32
  %21 = load ptr, ptr %4, align 8, !tbaa !38
  %22 = load ptr, ptr %21, align 8, !tbaa !16
  store i32 %20, ptr %22, align 4, !tbaa !18
  ret void
}

; Function Attrs: mustprogress uwtable
define linkonce_odr void @_ZN18duckdb_fastpforlib8internal8UnrollerILt52ELt2EE4PackEPKmPj(ptr noalias noundef %0, ptr noalias noundef %1) #2 comdat align 2 {
  %3 = alloca ptr, align 8
  %4 = alloca ptr, align 8
  store ptr %0, ptr %3, align 8, !tbaa !21
  store ptr %1, ptr %4, align 8, !tbaa !16
  %5 = load ptr, ptr %3, align 8, !tbaa !21
  %6 = getelementptr inbounds nuw i64, ptr %5, i64 2
  %7 = load i64, ptr %6, align 8, !tbaa !23
  call void @_ZN18duckdb_fastpforlib8internal16pack_single_in64ILt52ELt8ELm4503599627370495EEENSt9enable_ifIXaageplT_T0_Li32EltplT_T0_Li64EEvE4typeEmRrPj(i64 noundef %7, ptr noundef nonnull align 8 dereferenceable(8) %4)
  %8 = load ptr, ptr %3, align 8, !tbaa !21
  %9 = load ptr, ptr %4, align 8, !tbaa !16
  call void @_ZN18duckdb_fastpforlib8internal8UnrollerILt52ELt3EE4PackEPKmPj(ptr noundef %8, ptr noundef %9)
  ret void
}

; Function Attrs: mustprogress nounwind uwtable
define linkonce_odr void @_ZN18duckdb_fastpforlib8internal16pack_single_in64ILt52ELt20ELm4503599627370495EEENSt9enable_ifIXgeplT_T0_Li64EEvE4typeEmRrPj(i64 noundef %0, ptr noundef nonnull align 8 dereferenceable(8) %1) #0 comdat {
  %3 = alloca i64, align 8
  %4 = alloca ptr, align 8
  store i64 %0, ptr %3, align 8, !tbaa !23
  store ptr %1, ptr %4, align 8, !tbaa !38
  %5 = load i64, ptr %3, align 8, !tbaa !23
  %6 = shl i64 %5, 20
  %7 = load ptr, ptr %4, align 8, !tbaa !38
  %8 = load ptr, ptr %7, align 8, !tbaa !16
  %9 = load i32, ptr %8, align 4, !tbaa !18
  %10 = zext i32 %9 to i64
  %11 = or i64 %10, %6
  %12 = trunc i64 %11 to i32
  store i32 %12, ptr %8, align 4, !tbaa !18
  %13 = load ptr, ptr %4, align 8, !tbaa !38
  %14 = load ptr, ptr %13, align 8, !tbaa !16
  %15 = getelementptr inbounds nuw i32, ptr %14, i32 1
  store ptr %15, ptr %13, align 8, !tbaa !16
  %16 = load i64, ptr %3, align 8, !tbaa !23
  %17 = and i64 %16, 4503599627370495
  %18 = lshr i64 %17, 12
  %19 = trunc i64 %18 to i32
  %20 = load ptr, ptr %4, align 8, !tbaa !38
  %21 = load ptr, ptr %20, align 8, !tbaa !16
  store i32 %19, ptr %21, align 4, !tbaa !18
  %22 = load ptr, ptr %4, align 8, !tbaa !38
  %23 = load ptr, ptr %22, align 8, !tbaa !16
  %24 = getelementptr inbounds nuw i32, ptr %23, i32 1
  store ptr %24, ptr %22, align 8, !tbaa !16
  %25 = load i64, ptr %3, align 8, !tbaa !23
  %26 = and i64 %25, 4503599627370495
  %27 = lshr i64 %26, 44
  %28 = trunc i64 %27 to i32
  %29 = load ptr, ptr %4, align 8, !tbaa !38
  %30 = load ptr, ptr %29, align 8, !tbaa !16
  store i32 %28, ptr %30, align 4, !tbaa !18
  ret void
}

; Function Attrs: mustprogress uwtable
define linkonce_odr void @_ZN18duckdb_fastpforlib8internal8UnrollerILt52ELt1EE4PackEPKmPj(ptr noalias noundef %0, ptr noalias noundef %1) #2 comdat align 2 {
  %3 = alloca ptr, align 8
  %4 = alloca ptr, align 8
  store ptr %0, ptr %3, align 8, !tbaa !21
  store ptr %1, ptr %4, align 8, !tbaa !16
  %5 = load ptr, ptr %3, align 8, !tbaa !21
  %6 = getelementptr inbounds nuw i64, ptr %5, i64 1
  %7 = load i64, ptr %6, align 8, !tbaa !23
  call void @_ZN18duckdb_fastpforlib8internal16pack_single_in64ILt52ELt20ELm4503599627370495EEENSt9enable_ifIXgeplT_T0_Li64EEvE4typeEmRrPj(i64 noundef %7, ptr noundef nonnull align 8 dereferenceable(8) %4)
  %8 = load ptr, ptr %3, align 8, !tbaa !21
  %9 = load ptr, ptr %4, align 8, !tbaa !16
  call void @_ZN18duckdb_fastpforlib8internal8UnrollerILt52ELt2EE4PackEPKmPj(ptr noundef %8, ptr noundef %9)
  ret void
}

; Function Attrs: mustprogress nounwind uwtable
define linkonce_odr void @_ZN18duckdb_fastpforlib8internal16pack_single_in64ILt52ELt0ELm4503599627370495EEENSt9enable_ifIXaageplT_T0_Li32EltplT_T0_Li64EEvE4typeEmRrPj(i64 noundef %0, ptr noundef nonnull align 8 dereferenceable(8) %1) #0 comdat {
  %3 = alloca i64, align 8
  %4 = alloca ptr, align 8
  store i64 %0, ptr %3, align 8, !tbaa !23
  store ptr %1, ptr %4, align 8, !tbaa !38
  %5 = load i64, ptr %3, align 8, !tbaa !23
  %6 = and i64 %5, 4503599627370495
  %7 = trunc i64 %6 to i32
  %8 = load ptr, ptr %4, align 8, !tbaa !38
  %9 = load ptr, ptr %8, align 8, !tbaa !16
  store i32 %7, ptr %9, align 4, !tbaa !18
  %10 = load ptr, ptr %4, align 8, !tbaa !38
  %11 = load ptr, ptr %10, align 8, !tbaa !16
  %12 = getelementptr inbounds nuw i32, ptr %11, i32 1
  store ptr %12, ptr %10, align 8, !tbaa !16
  %13 = load i64, ptr %3, align 8, !tbaa !23
  %14 = and i64 %13, 4503599627370495
  %15 = lshr i64 %14, 32
  %16 = trunc i64 %15 to i32
  %17 = load ptr, ptr %4, align 8, !tbaa !38
  %18 = load ptr, ptr %17, align 8, !tbaa !16
  store i32 %16, ptr %18, align 4, !tbaa !18
  ret void
}

; Function Attrs: mustprogress uwtable
define linkonce_odr void @_ZN18duckdb_fastpforlib8internal8UnrollerILt52ELt0EE4PackEPKmPj(ptr noalias noundef %0, ptr noalias noundef %1) #2 comdat align 2 {
  %3 = alloca ptr, align 8
  %4 = alloca ptr, align 8
  store ptr %0, ptr %3, align 8, !tbaa !21
  store ptr %1, ptr %4, align 8, !tbaa !16
  %5 = load ptr, ptr %3, align 8, !tbaa !21
  %6 = getelementptr inbounds nuw i64, ptr %5, i64 0
  %7 = load i64, ptr %6, align 8, !tbaa !23
  call void @_ZN18duckdb_fastpforlib8internal16pack_single_in64ILt52ELt0ELm4503599627370495EEENSt9enable_ifIXaageplT_T0_Li32EltplT_T0_Li64EEvE4typeEmRrPj(i64 noundef %7, ptr noundef nonnull align 8 dereferenceable(8) %4)
  %8 = load ptr, ptr %3, align 8, !tbaa !21
  %9 = load ptr, ptr %4, align 8, !tbaa !16
  call void @_ZN18duckdb_fastpforlib8internal8UnrollerILt52ELt1EE4PackEPKmPj(ptr noundef %8, ptr noundef %9)
  ret void
}

; Function Attrs: mustprogress uwtable
define void @_ZN18duckdb_fastpforlib8internal12__fastpack52EPKmPj(ptr noalias noundef %0, ptr noalias noundef %1) #2 {
  %3 = alloca ptr, align 8
  %4 = alloca ptr, align 8
  store ptr %0, ptr %3, align 8, !tbaa !21
  store ptr %1, ptr %4, align 8, !tbaa !16
  %5 = load ptr, ptr %3, align 8, !tbaa !21
  %6 = load ptr, ptr %4, align 8, !tbaa !16
  call void @_ZN18duckdb_fastpforlib8internal8UnrollerILt52ELt0EE4PackEPKmPj(ptr noundef %5, ptr noundef %6)
  ret void
}