; Function Attrs: mustprogress uwtable
define void @_ZN18duckdb_fastpforlib8internal12__fastpack52EPKmPj(ptr noalias noundef %0, ptr noalias noundef initializes((0, 60)) %1) local_unnamed_addr #5 {
  tail call void @llvm.experimental.noalias.scope.decl(metadata !15420)
  tail call void @llvm.experimental.noalias.scope.decl(metadata !15423)
  %3 = load i64, ptr %0, align 8, !tbaa !9, !alias.scope !15420, !noalias !15423
  %4 = trunc i64 %3 to i32
  store i32 %4, ptr %1, align 4, !tbaa !7, !alias.scope !15423, !noalias !15420
  %5 = getelementptr inbounds nuw i8, ptr %1, i64 4
  %6 = lshr i64 %3, 32
  %7 = trunc nuw i64 %6 to i32
  %8 = and i32 %7, 1048575
  tail call void @llvm.experimental.noalias.scope.decl(metadata !15425)
  tail call void @llvm.experimental.noalias.scope.decl(metadata !15428)
  %9 = getelementptr inbounds nuw i8, ptr %0, i64 8
  %10 = load i64, ptr %9, align 8, !tbaa !9, !alias.scope !15430, !noalias !15431
  %.tr.i.i.i = trunc i64 %10 to i32
  %11 = shl i32 %.tr.i.i.i, 20
  %12 = or disjoint i32 %11, %8
  store i32 %12, ptr %5, align 4, !tbaa !7, !alias.scope !15431, !noalias !15430
  %13 = getelementptr inbounds nuw i8, ptr %1, i64 8
  %14 = lshr i64 %10, 12
  %15 = trunc i64 %14 to i32
  store i32 %15, ptr %13, align 4, !tbaa !7, !alias.scope !15431, !noalias !15430
  %16 = getelementptr inbounds nuw i8, ptr %1, i64 12
  %17 = lshr i64 %10, 44
  %18 = trunc nuw nsw i64 %17 to i32
  %19 = and i32 %18, 255
  tail call void @llvm.experimental.noalias.scope.decl(metadata !15432)
  tail call void @llvm.experimental.noalias.scope.decl(metadata !15435)
  %20 = getelementptr inbounds nuw i8, ptr %0, i64 16
  %21 = load i64, ptr %20, align 8, !tbaa !9, !alias.scope !15437, !noalias !15438
  %.tr.i.i.i.i = trunc i64 %21 to i32
  %22 = shl i32 %.tr.i.i.i.i, 8
  %23 = or disjoint i32 %22, %19
  store i32 %23, ptr %16, align 4, !tbaa !7, !alias.scope !15438, !noalias !15437
  %24 = getelementptr inbounds nuw i8, ptr %1, i64 16
  %25 = lshr i64 %21, 24
  %26 = trunc i64 %25 to i32
  %27 = and i32 %26, 268435455
  tail call void @llvm.experimental.noalias.scope.decl(metadata !15439)
  tail call void @llvm.experimental.noalias.scope.decl(metadata !15442)
  %28 = getelementptr inbounds nuw i8, ptr %0, i64 24
  %29 = load i64, ptr %28, align 8, !tbaa !9, !alias.scope !15444, !noalias !15445
  %.tr.i.i.i.i.i = trunc i64 %29 to i32
  %30 = shl i32 %.tr.i.i.i.i.i, 28
  %31 = or disjoint i32 %30, %27
  store i32 %31, ptr %24, align 4, !tbaa !7, !alias.scope !15445, !noalias !15444
  %32 = getelementptr inbounds nuw i8, ptr %1, i64 20
  %33 = lshr i64 %29, 4
  %34 = trunc i64 %33 to i32
  store i32 %34, ptr %32, align 4, !tbaa !7, !alias.scope !15445, !noalias !15444
  %35 = getelementptr inbounds nuw i8, ptr %1, i64 24
  %36 = lshr i64 %29, 36
  %37 = trunc nuw nsw i64 %36 to i32
  %38 = and i32 %37, 65535
  tail call void @llvm.experimental.noalias.scope.decl(metadata !15446)
  tail call void @llvm.experimental.noalias.scope.decl(metadata !15449)
  %39 = getelementptr inbounds nuw i8, ptr %0, i64 32
  %40 = load i64, ptr %39, align 8, !tbaa !9, !alias.scope !15451, !noalias !15452
  %.tr.i.i.i.i.i.i = trunc i64 %40 to i32
  %41 = shl i32 %.tr.i.i.i.i.i.i, 16
  %42 = or disjoint i32 %41, %38
  store i32 %42, ptr %35, align 4, !tbaa !7, !alias.scope !15452, !noalias !15451
  %43 = getelementptr inbounds nuw i8, ptr %1, i64 28
  %44 = lshr i64 %40, 16
  %45 = trunc i64 %44 to i32
  store i32 %45, ptr %43, align 4, !tbaa !7, !alias.scope !15452, !noalias !15451
  %46 = getelementptr inbounds nuw i8, ptr %1, i64 32
  %47 = lshr i64 %40, 48
  %48 = trunc nuw nsw i64 %47 to i32
  %49 = and i32 %48, 15
  tail call void @llvm.experimental.noalias.scope.decl(metadata !15453)
  tail call void @llvm.experimental.noalias.scope.decl(metadata !15456)
  %50 = getelementptr inbounds nuw i8, ptr %0, i64 40
  %51 = load i64, ptr %50, align 8, !tbaa !9, !alias.scope !15458, !noalias !15459
  %.tr.i.i.i.i.i.i.i = trunc i64 %51 to i32
  %52 = shl i32 %.tr.i.i.i.i.i.i.i, 4
  %53 = or disjoint i32 %52, %49
  store i32 %53, ptr %46, align 4, !tbaa !7, !alias.scope !15459, !noalias !15458
  %54 = getelementptr inbounds nuw i8, ptr %1, i64 36
  %55 = lshr i64 %51, 28
  %56 = trunc i64 %55 to i32
  %57 = and i32 %56, 16777215
  tail call void @llvm.experimental.noalias.scope.decl(metadata !15460)
  tail call void @llvm.experimental.noalias.scope.decl(metadata !15463)
  %58 = getelementptr inbounds nuw i8, ptr %0, i64 48
  %59 = load i64, ptr %58, align 8, !tbaa !9, !alias.scope !15465, !noalias !15466
  %.tr.i.i.i.i.i.i.i.i = trunc i64 %59 to i32
  %60 = shl i32 %.tr.i.i.i.i.i.i.i.i, 24
  %61 = or disjoint i32 %60, %57
  store i32 %61, ptr %54, align 4, !tbaa !7, !alias.scope !15466, !noalias !15465
  %62 = getelementptr inbounds nuw i8, ptr %1, i64 40
  %63 = lshr i64 %59, 8
  %64 = trunc i64 %63 to i32
  store i32 %64, ptr %62, align 4, !tbaa !7, !alias.scope !15466, !noalias !15465
  %65 = getelementptr inbounds nuw i8, ptr %1, i64 44
  %66 = lshr i64 %59, 40
  %67 = trunc nuw nsw i64 %66 to i32
  %68 = and i32 %67, 4095
  tail call void @llvm.experimental.noalias.scope.decl(metadata !15467)
  tail call void @llvm.experimental.noalias.scope.decl(metadata !15470)
  %69 = getelementptr inbounds nuw i8, ptr %0, i64 56
  %70 = load i64, ptr %69, align 8, !tbaa !9, !alias.scope !15472, !noalias !15473
  %.tr.i.i.i.i.i.i.i.i.i = trunc i64 %70 to i32
  %71 = shl i32 %.tr.i.i.i.i.i.i.i.i.i, 12
  %72 = or disjoint i32 %71, %68
  store i32 %72, ptr %65, align 4, !tbaa !7, !alias.scope !15473, !noalias !15472
  %73 = getelementptr inbounds nuw i8, ptr %1, i64 48
  %74 = lshr i64 %70, 20
  %75 = trunc i64 %74 to i32
  store i32 %75, ptr %73, align 4, !tbaa !7, !alias.scope !15473, !noalias !15472
  %76 = getelementptr inbounds nuw i8, ptr %1, i64 52
  tail call void @llvm.experimental.noalias.scope.decl(metadata !15474)
  tail call void @llvm.experimental.noalias.scope.decl(metadata !15477)
  %77 = getelementptr inbounds nuw i8, ptr %0, i64 64
  %78 = load i64, ptr %77, align 8, !tbaa !9, !alias.scope !15479, !noalias !15480
  %79 = trunc i64 %78 to i32
  store i32 %79, ptr %76, align 4, !tbaa !7, !alias.scope !15480, !noalias !15479
  %80 = getelementptr inbounds nuw i8, ptr %1, i64 56
  %81 = lshr i64 %78, 32
  %82 = trunc nuw i64 %81 to i32
  %83 = and i32 %82, 1048575
  store i32 %83, ptr %80, align 4, !tbaa !7, !alias.scope !15480, !noalias !15479
  tail call void @_ZN18duckdb_fastpforlib8internal8UnrollerILt52ELt9EE4PackEPKmPj(ptr noundef nonnull %0, ptr noundef nonnull %80)
  ret void
}